target datalayout = "e-m:e-p270:32:32-p271:32:32-p272:64:64-i64:64-i128:128-f80:128-n8:16:32:64-S128"
target triple = "x86_64-pc-linux-gnu"

%struct._zval_struct = type { %union._zend_value, %union.anon.3, %union.anon.6 }
%union._zend_value = type { i64 }
%union.anon.3 = type { i32 }
%union.anon.6 = type { i32 }
%struct._zend_constant = type { %struct._zval_struct, ptr }
%struct._php_stream = type { ptr, ptr, %struct._php_stream_filter_chain, %struct._php_stream_filter_chain, ptr, ptr, %struct._zval_struct, i16, [16 x i8], i32, ptr, ptr, ptr, ptr, i64, ptr, i64, i64, i64, i64, ptr }
%struct._php_stream_filter_chain = type { ptr, ptr, ptr }

@s_in_process = internal global ptr null, align 8
@.str.98 = private unnamed_addr constant [3 x i8] c"rb\00", align 1
@.str.100 = private unnamed_addr constant [12 x i8] c"php://stdin\00", align 1
@.str.101 = private unnamed_addr constant [13 x i8] c"php://stdout\00", align 1
@.str.102 = private unnamed_addr constant [3 x i8] c"wb\00", align 1
@.str.103 = private unnamed_addr constant [13 x i8] c"php://stderr\00", align 1
@zend_string_init_interned = external global ptr, align 8
@.str.104 = private unnamed_addr constant [6 x i8] c"STDIN\00", align 1
@.str.105 = private unnamed_addr constant [7 x i8] c"STDOUT\00", align 1
@.str.106 = private unnamed_addr constant [7 x i8] c"STDERR\00", align 1

; Function Attrs: nounwind uwtable
define internal void @cli_register_file_handles() #0 {
  %1 = alloca ptr, align 8
  %2 = alloca ptr, align 8
  %3 = alloca ptr, align 8
  %4 = alloca ptr, align 8
  %5 = alloca ptr, align 8
  %6 = alloca ptr, align 8
  %7 = alloca %struct._zend_constant, align 8
  %8 = alloca %struct._zend_constant, align 8
  %9 = alloca %struct._zend_constant, align 8
  %10 = alloca ptr, align 8
  %11 = alloca ptr, align 8
  %12 = alloca ptr, align 8
  store ptr null, ptr %4, align 8
  store ptr null, ptr %5, align 8
  store ptr null, ptr %6, align 8
  %13 = load ptr, ptr %4, align 8
  %14 = call ptr @_php_stream_open_wrapper_ex(ptr noundef @.str.100, ptr noundef @.str.98, i32 noundef 0, ptr noundef null, ptr noundef %13)
  store ptr %14, ptr %1, align 8
  %15 = load ptr, ptr %5, align 8
  %16 = call ptr @_php_stream_open_wrapper_ex(ptr noundef @.str.101, ptr noundef @.str.102, i32 noundef 0, ptr noundef null, ptr noundef %15)
  store ptr %16, ptr %2, align 8
  %17 = load ptr, ptr %6, align 8
  %18 = call ptr @_php_stream_open_wrapper_ex(ptr noundef @.str.103, ptr noundef @.str.102, i32 noundef 0, ptr noundef null, ptr noundef %17)
  store ptr %18, ptr %3, align 8
  %19 = load ptr, ptr %1, align 8
  %20 = icmp ne ptr %19, null
  br i1 %20, label %21, label %26

21:                                               ; preds = %0
  %22 = load ptr, ptr %1, align 8
  %23 = getelementptr inbounds %struct._php_stream, ptr %22, i32 0, i32 9
  %24 = load i32, ptr %23, align 4
  %25 = or i32 %24, 512
  store i32 %25, ptr %23, align 4
  br label %26

26:                                               ; preds = %21, %0
  %27 = load ptr, ptr %2, align 8
  %28 = icmp ne ptr %27, null
  br i1 %28, label %29, label %34

29:                                               ; preds = %26
  %30 = load ptr, ptr %2, align 8
  %31 = getelementptr inbounds %struct._php_stream, ptr %30, i32 0, i32 9
  %32 = load i32, ptr %31, align 4
  %33 = or i32 %32, 512
  store i32 %33, ptr %31, align 4
  br label %34

34:                                               ; preds = %29, %26
  %35 = load ptr, ptr %3, align 8
  %36 = icmp ne ptr %35, null
  br i1 %36, label %37, label %42

37:                                               ; preds = %34
  %38 = load ptr, ptr %3, align 8
  %39 = getelementptr inbounds %struct._php_stream, ptr %38, i32 0, i32 9
  %40 = load i32, ptr %39, align 4
  %41 = or i32 %40, 512
  store i32 %41, ptr %39, align 4
  br label %42

42:                                               ; preds = %37, %34
  %43 = load ptr, ptr %1, align 8
  %44 = icmp eq ptr %43, null
  br i1 %44, label %51, label %45

45:                                               ; preds = %42
  %46 = load ptr, ptr %2, align 8
  %47 = icmp eq ptr %46, null
  br i1 %47, label %51, label %48

48:                                               ; preds = %45
  %49 = load ptr, ptr %3, align 8
  %50 = icmp eq ptr %49, null
  br i1 %50, label %51, label %70

51:                                               ; preds = %48, %45, %42
  %52 = load ptr, ptr %1, align 8
  %53 = icmp ne ptr %52, null
  br i1 %53, label %54, label %57

54:                                               ; preds = %51
  %55 = load ptr, ptr %1, align 8
  %56 = call i32 @_php_stream_free(ptr noundef %55, i32 noundef 3)
  br label %57

57:                                               ; preds = %54, %51
  %58 = load ptr, ptr %2, align 8
  %59 = icmp ne ptr %58, null
  br i1 %59, label %60, label %63

60:                                               ; preds = %57
  %61 = load ptr, ptr %2, align 8
  %62 = call i32 @_php_stream_free(ptr noundef %61, i32 noundef 3)
  br label %63

63:                                               ; preds = %60, %57
  %64 = load ptr, ptr %3, align 8
  %65 = icmp ne ptr %64, null
  br i1 %65, label %66, label %69

66:                                               ; preds = %63
  %67 = load ptr, ptr %3, align 8
  %68 = call i32 @_php_stream_free(ptr noundef %67, i32 noundef 3)
  br label %69

69:                                               ; preds = %66, %63
  br label %135

70:                                               ; preds = %48
  %71 = load ptr, ptr %1, align 8
  store ptr %71, ptr @s_in_process, align 8
  br label %72

72:                                               ; preds = %70
  %73 = getelementptr inbounds %struct._zend_constant, ptr %7, i32 0, i32 0
  store ptr %73, ptr %10, align 8
  %74 = load ptr, ptr %1, align 8
  %75 = getelementptr inbounds %struct._php_stream, ptr %74, i32 0, i32 10
  %76 = load ptr, ptr %75, align 8
  %77 = load ptr, ptr %10, align 8
  %78 = getelementptr inbounds %struct._zval_struct, ptr %77, i32 0, i32 0
  store ptr %76, ptr %78, align 8
  %79 = load ptr, ptr %10, align 8
  %80 = getelementptr inbounds %struct._zval_struct, ptr %79, i32 0, i32 1
  store i32 265, ptr %80, align 8
  br label %81

81:                                               ; preds = %72
  %82 = load ptr, ptr %1, align 8
  %83 = getelementptr inbounds %struct._php_stream, ptr %82, i32 0, i32 7
  %84 = load i16, ptr %83, align 8
  %85 = and i16 %84, -17
  %86 = or i16 %85, 16
  store i16 %86, ptr %83, align 8
  br label %87

87:                                               ; preds = %81
  %88 = getelementptr inbounds %struct._zend_constant, ptr %8, i32 0, i32 0
  store ptr %88, ptr %11, align 8
  %89 = load ptr, ptr %2, align 8
  %90 = getelementptr inbounds %struct._php_stream, ptr %89, i32 0, i32 10
  %91 = load ptr, ptr %90, align 8
  %92 = load ptr, ptr %11, align 8
  %93 = getelementptr inbounds %struct._zval_struct, ptr %92, i32 0, i32 0
  store ptr %91, ptr %93, align 8
  %94 = load ptr, ptr %11, align 8
  %95 = getelementptr inbounds %struct._zval_struct, ptr %94, i32 0, i32 1
  store i32 265, ptr %95, align 8
  br label %96

96:                                               ; preds = %87
  %97 = load ptr, ptr %2, align 8
  %98 = getelementptr inbounds %struct._php_stream, ptr %97, i32 0, i32 7
  %99 = load i16, ptr %98, align 8
  %100 = and i16 %99, -17
  %101 = or i16 %100, 16
  store i16 %101, ptr %98, align 8
  br label %102

102:                                              ; preds = %96
  %103 = getelementptr inbounds %struct._zend_constant, ptr %9, i32 0, i32 0
  store ptr %103, ptr %12, align 8
  %104 = load ptr, ptr %3, align 8
  %105 = getelementptr inbounds %struct._php_stream, ptr %104, i32 0, i32 10
  %106 = load ptr, ptr %105, align 8
  %107 = load ptr, ptr %12, align 8
  %108 = getelementptr inbounds %struct._zval_struct, ptr %107, i32 0, i32 0
  store ptr %106, ptr %108, align 8
  %109 = load ptr, ptr %12, align 8
  %110 = getelementptr inbounds %struct._zval_struct, ptr %109, i32 0, i32 1
  store i32 265, ptr %110, align 8
  br label %111

111:                                              ; preds = %102
  %112 = load ptr, ptr %3, align 8
  %113 = getelementptr inbounds %struct._php_stream, ptr %112, i32 0, i32 7
  %114 = load i16, ptr %113, align 8
  %115 = and i16 %114, -17
  %116 = or i16 %115, 16
  store i16 %116, ptr %113, align 8
  %117 = getelementptr inbounds %struct._zend_constant, ptr %7, i32 0, i32 0
  %118 = getelementptr inbounds %struct._zval_struct, ptr %117, i32 0, i32 2
  store i32 0, ptr %118, align 4
  %119 = load ptr, ptr @zend_string_init_interned, align 8
  %120 = call ptr %119(ptr noundef @.str.104, i64 noundef 5, i1 noundef zeroext false)
  %121 = getelementptr inbounds %struct._zend_constant, ptr %7, i32 0, i32 1
  store ptr %120, ptr %121, align 8
  %122 = call i32 @zend_register_constant(ptr noundef %7)
  %123 = getelementptr inbounds %struct._zend_constant, ptr %8, i32 0, i32 0
  %124 = getelementptr inbounds %struct._zval_struct, ptr %123, i32 0, i32 2
  store i32 0, ptr %124, align 4
  %125 = load ptr, ptr @zend_string_init_interned, align 8
  %126 = call ptr %125(ptr noundef @.str.105, i64 noundef 6, i1 noundef zeroext false)
  %127 = getelementptr inbounds %struct._zend_constant, ptr %8, i32 0, i32 1
  store ptr %126, ptr %127, align 8
  %128 = call i32 @zend_register_constant(ptr noundef %8)
  %129 = getelementptr inbounds %struct._zend_constant, ptr %9, i32 0, i32 0
  %130 = getelementptr inbounds %struct._zval_struct, ptr %129, i32 0, i32 2
  store i32 0, ptr %130, align 4
  %131 = load ptr, ptr @zend_string_init_interned, align 8
  %132 = call ptr %131(ptr noundef @.str.106, i64 noundef 6, i1 noundef zeroext false)
  %133 = getelementptr inbounds %struct._zend_constant, ptr %9, i32 0, i32 1
  store ptr %132, ptr %133, align 8
  %134 = call i32 @zend_register_constant(ptr noundef %9)
  br label %135

135:                                              ; preds = %111, %69
  ret void
}