; Function Attrs: nounwind uwtable
define internal fastcc void @cli_register_file_handles() unnamed_addr #1 {
  %1 = alloca %struct._zend_constant, align 8
  %2 = alloca %struct._zend_constant, align 8
  %3 = alloca %struct._zend_constant, align 8
  %4 = tail call ptr @_php_stream_open_wrapper_ex(ptr noundef nonnull @.str.100, ptr noundef nonnull @.str.98, i32 noundef 0, ptr noundef null, ptr noundef null) #23
  %5 = tail call ptr @_php_stream_open_wrapper_ex(ptr noundef nonnull @.str.101, ptr noundef nonnull @.str.102, i32 noundef 0, ptr noundef null, ptr noundef null) #23
  %6 = tail call ptr @_php_stream_open_wrapper_ex(ptr noundef nonnull @.str.103, ptr noundef nonnull @.str.102, i32 noundef 0, ptr noundef null, ptr noundef null) #23
  %.not = icmp eq ptr %4, null
  br i1 %.not, label %11, label %7

7:                                                ; preds = %0
  %8 = getelementptr inbounds i8, ptr %4, i64 116
  %9 = load i32, ptr %8, align 4
  %10 = or i32 %9, 512
  store i32 %10, ptr %8, align 4
  br label %11

11:                                               ; preds = %7, %0
  %.not40 = icmp eq ptr %5, null
  br i1 %.not40, label %16, label %12

12:                                               ; preds = %11
  %13 = getelementptr inbounds i8, ptr %5, i64 116
  %14 = load i32, ptr %13, align 4
  %15 = or i32 %14, 512
  store i32 %15, ptr %13, align 4
  br label %16

16:                                               ; preds = %12, %11
  %.not41 = icmp eq ptr %6, null
  br i1 %.not41, label %.thread, label %17

17:                                               ; preds = %16
  %18 = getelementptr inbounds i8, ptr %6, i64 116
  %19 = load i32, ptr %18, align 4
  %20 = or i32 %19, 512
  store i32 %20, ptr %18, align 4
  %or.cond = or i1 %.not, %.not40
  br i1 %or.cond, label %.thread, label %29

.thread:                                          ; preds = %16, %17
  br i1 %.not, label %23, label %21

21:                                               ; preds = %.thread
  %22 = tail call i32 @_php_stream_free(ptr noundef nonnull %4, i32 noundef 3) #23
  br label %23

23:                                               ; preds = %21, %.thread
  br i1 %.not40, label %26, label %24

24:                                               ; preds = %23
  %25 = tail call i32 @_php_stream_free(ptr noundef nonnull %5, i32 noundef 3) #23
  br label %26

26:                                               ; preds = %24, %23
  br i1 %.not41, label %63, label %27

27:                                               ; preds = %26
  %28 = tail call i32 @_php_stream_free(ptr noundef nonnull %6, i32 noundef 3) #23
  br label %63

29:                                               ; preds = %17
  store ptr %4, ptr @s_in_process, align 8
  %30 = getelementptr inbounds i8, ptr %4, i64 120
  %31 = load ptr, ptr %30, align 8
  store ptr %31, ptr %1, align 8
  %32 = getelementptr inbounds i8, ptr %1, i64 8
  store i32 265, ptr %32, align 8
  %33 = getelementptr inbounds i8, ptr %4, i64 96
  %34 = load i16, ptr %33, align 8
  %35 = or i16 %34, 16
  store i16 %35, ptr %33, align 8
  %36 = getelementptr inbounds i8, ptr %5, i64 120
  %37 = load ptr, ptr %36, align 8
  store ptr %37, ptr %2, align 8
  %38 = getelementptr inbounds i8, ptr %2, i64 8
  store i32 265, ptr %38, align 8
  %39 = getelementptr inbounds i8, ptr %5, i64 96
  %40 = load i16, ptr %39, align 8
  %41 = or i16 %40, 16
  store i16 %41, ptr %39, align 8
  %42 = getelementptr inbounds i8, ptr %6, i64 120
  %43 = load ptr, ptr %42, align 8
  store ptr %43, ptr %3, align 8
  %44 = getelementptr inbounds i8, ptr %3, i64 8
  store i32 265, ptr %44, align 8
  %45 = getelementptr inbounds i8, ptr %6, i64 96
  %46 = load i16, ptr %45, align 8
  %47 = or i16 %46, 16
  store i16 %47, ptr %45, align 8
  %48 = getelementptr inbounds i8, ptr %1, i64 12
  store i32 0, ptr %48, align 4
  %49 = load ptr, ptr @zend_string_init_interned, align 8
  %50 = tail call ptr %49(ptr noundef nonnull @.str.104, i64 noundef 5, i1 noundef zeroext false) #23
  %51 = getelementptr inbounds i8, ptr %1, i64 16
  store ptr %50, ptr %51, align 8
  %52 = call i32 @zend_register_constant(ptr noundef nonnull %1) #23
  %53 = getelementptr inbounds i8, ptr %2, i64 12
  store i32 0, ptr %53, align 4
  %54 = load ptr, ptr @zend_string_init_interned, align 8
  %55 = call ptr %54(ptr noundef nonnull @.str.105, i64 noundef 6, i1 noundef zeroext false) #23
  %56 = getelementptr inbounds i8, ptr %2, i64 16
  store ptr %55, ptr %56, align 8
  %57 = call i32 @zend_register_constant(ptr noundef nonnull %2) #23
  %58 = getelementptr inbounds i8, ptr %3, i64 12
  store i32 0, ptr %58, align 4
  %59 = load ptr, ptr @zend_string_init_interned, align 8
  %60 = call ptr %59(ptr noundef nonnull @.str.106, i64 noundef 6, i1 noundef zeroext false) #23
  %61 = getelementptr inbounds i8, ptr %3, i64 16
  store ptr %60, ptr %61, align 8
  %62 = call i32 @zend_register_constant(ptr noundef nonnull %3) #23
  br label %63

63:                                               ; preds = %26, %27, %29
  ret void
}